target datalayout = "e-m:e-p270:32:32-p271:32:32-p272:64:64-i64:64-i128:128-f80:128-n8:16:32:64-S128"
target triple = "x86_64-pc-linux-gnu"

; Function Attrs: nounwind uwtable
define internal i32 @do_mac(ptr noundef %0, ptr noundef %1, ptr noundef %2, ptr noundef %3, ptr noundef %4) #0 {
  %6 = alloca ptr, align 8
  %7 = alloca ptr, align 8
  %8 = alloca ptr, align 8
  %9 = alloca ptr, align 8
  %10 = alloca ptr, align 8
  %11 = alloca i32, align 4
  %12 = alloca i32, align 4
  %13 = alloca i64, align 8
  store ptr %0, ptr %6, align 8, !tbaa !15
  store ptr %1, ptr %7, align 8, !tbaa !11
  store ptr %2, ptr %8, align 8, !tbaa !13
  store ptr %3, ptr %9, align 8, !tbaa !11
  store ptr %4, ptr %10, align 8, !tbaa !35
  call void @llvm.lifetime.start.p0(i64 4, ptr %11) #6
  store i32 0, ptr %11, align 4, !tbaa !4
  call void @llvm.lifetime.start.p0(i64 4, ptr %12) #6
  call void @llvm.lifetime.start.p0(i64 8, ptr %13) #6
  %14 = load ptr, ptr %10, align 8, !tbaa !35
  %15 = load i64, ptr %14, align 8, !tbaa !19
  store i64 %15, ptr %13, align 8, !tbaa !19
  %16 = load ptr, ptr %6, align 8, !tbaa !15
  %17 = call i32 @EVP_MAC_init(ptr noundef %16, ptr noundef null, i64 noundef 0, ptr noundef null)
  %18 = icmp ne i32 %17, 0
  br i1 %18, label %20, label %19

19:                                               ; preds = %5
  br label %54

20:                                               ; preds = %5
  %21 = load ptr, ptr %6, align 8, !tbaa !15
  %22 = call i64 @EVP_MAC_CTX_get_mac_size(ptr noundef %21)
  %23 = load i64, ptr %13, align 8, !tbaa !19
  %24 = icmp ugt i64 %22, %23
  br i1 %24, label %25, label %26

25:                                               ; preds = %20
  br label %45

26:                                               ; preds = %20
  br label %27

27:                                               ; preds = %43, %26
  %28 = load ptr, ptr %8, align 8, !tbaa !13
  %29 = load ptr, ptr %7, align 8, !tbaa !11
  %30 = call i32 @BIO_read(ptr noundef %28, ptr noundef %29, i32 noundef 4096)
  store i32 %30, ptr %12, align 4, !tbaa !4
  %31 = icmp ne i32 %30, 0
  br i1 %31, label %32, label %44

32:                                               ; preds = %27
  %33 = load i32, ptr %12, align 4, !tbaa !4
  %34 = icmp slt i32 %33, 0
  br i1 %34, label %42, label %35

35:                                               ; preds = %32
  %36 = load ptr, ptr %6, align 8, !tbaa !15
  %37 = load ptr, ptr %7, align 8, !tbaa !11
  %38 = load i32, ptr %12, align 4, !tbaa !4
  %39 = sext i32 %38 to i64
  %40 = call i32 @EVP_MAC_update(ptr noundef %36, ptr noundef %37, i64 noundef %39)
  %41 = icmp ne i32 %40, 0
  br i1 %41, label %43, label %42

42:                                               ; preds = %35, %32
  br label %54

43:                                               ; preds = %35
  br label %27, !llvm.loop !37

44:                                               ; preds = %27
  br label %45

45:                                               ; preds = %44, %25
  %46 = load ptr, ptr %6, align 8, !tbaa !15
  %47 = load ptr, ptr %9, align 8, !tbaa !11
  %48 = load ptr, ptr %10, align 8, !tbaa !35
  %49 = load i64, ptr %13, align 8, !tbaa !19
  %50 = call i32 @EVP_MAC_final(ptr noundef %46, ptr noundef %47, ptr noundef %48, i64 noundef %49)
  %51 = icmp ne i32 %50, 0
  br i1 %51, label %53, label %52

52:                                               ; preds = %45
  br label %54

53:                                               ; preds = %45
  store i32 1, ptr %11, align 4, !tbaa !4
  br label %54

54:                                               ; preds = %53, %52, %42, %19
  %55 = load i32, ptr %11, align 4, !tbaa !4
  call void @llvm.lifetime.end.p0(i64 8, ptr %13) #6
  call void @llvm.lifetime.end.p0(i64 4, ptr %12) #6
  call void @llvm.lifetime.end.p0(i64 4, ptr %11) #6
  ret i32 %55
}