; Function Attrs: nounwind uwtable
define internal fastcc range(i32 0, 2) i32 @do_mac(ptr noundef nonnull %0, ptr noundef nonnull %1, ptr noundef nonnull %2, ptr noundef nonnull %3, ptr noundef nonnull %4) unnamed_addr #0 {
  %6 = load i64, ptr %4, align 8, !tbaa !8
  %7 = tail call i32 @EVP_MAC_init(ptr noundef nonnull %0, ptr noundef null, i64 noundef 0, ptr noundef null) #6
  %.not = icmp eq i32 %7, 0
  br i1 %.not, label %.loopexit18, label %8

8:                                                ; preds = %5
  %9 = tail call i64 @EVP_MAC_CTX_get_mac_size(ptr noundef nonnull %0) #6
  %10 = icmp ugt i64 %9, %6
  br i1 %10, label %.loopexit, label %.preheader

.preheader:                                       ; preds = %8, %14
  %11 = tail call i32 @BIO_read(ptr noundef nonnull %2, ptr noundef nonnull %1, i32 noundef 4096) #6
  %.not15 = icmp eq i32 %11, 0
  br i1 %.not15, label %.loopexit, label %12

12:                                               ; preds = %.preheader
  %13 = icmp slt i32 %11, 0
  br i1 %13, label %.loopexit18, label %14

14:                                               ; preds = %12
  %15 = zext nneg i32 %11 to i64
  %16 = tail call i32 @EVP_MAC_update(ptr noundef nonnull %0, ptr noundef nonnull %1, i64 noundef %15) #6
  %.not16 = icmp eq i32 %16, 0
  br i1 %.not16, label %.loopexit18, label %.preheader, !llvm.loop !21

.loopexit:                                        ; preds = %.preheader, %8
  %17 = tail call i32 @EVP_MAC_final(ptr noundef nonnull %0, ptr noundef nonnull %3, ptr noundef nonnull %4, i64 noundef %6) #6
  %.not17 = icmp ne i32 %17, 0
  %spec.select = zext i1 %.not17 to i32
  br label %.loopexit18

.loopexit18:                                      ; preds = %12, %14, %.loopexit, %5
  %.0 = phi i32 [ 0, %5 ], [ %spec.select, %.loopexit ], [ 0, %14 ], [ 0, %12 ]
  ret i32 %.0
}